target datalayout = "e-m:e-p270:32:32-p271:32:32-p272:64:64-i64:64-i128:128-f80:128-n8:16:32:64-S128"
target triple = "x86_64-pc-linux-gnu"

@hf_opcua_transport_type = internal global i32 0, align 4
@hf_opcua_transport_chunk = internal global i32 0, align 4
@hf_opcua_transport_size = internal global i32 0, align 4
@hf_opcua_transport_error = internal global i32 0, align 4
@hf_opcua_transport_reason = internal global i32 0, align 4

; Function Attrs: null_pointer_is_valid sspstrong uwtable
define hidden void @parseMessageHeader(ptr noundef %0, ptr noundef %1, ptr noundef %2, ptr noundef %3, ptr noundef %4) #0 {
  %6 = alloca ptr, align 8
  %7 = alloca ptr, align 8
  %8 = alloca ptr, align 8
  %9 = alloca ptr, align 8
  %10 = alloca ptr, align 8
  store ptr %0, ptr %6, align 8
  store ptr %1, ptr %7, align 8
  store ptr %2, ptr %8, align 8
  store ptr %3, ptr %9, align 8
  store ptr %4, ptr %10, align 8
  %11 = load ptr, ptr %6, align 8
  %12 = load i32, ptr @hf_opcua_transport_type, align 4
  %13 = load ptr, ptr %7, align 8
  %14 = load ptr, ptr %9, align 8
  %15 = load i32, ptr %14, align 4
  %16 = call ptr @proto_tree_add_item(ptr noundef %11, i32 noundef %12, ptr noundef %13, i32 noundef %15, i32 noundef 3, i32 noundef 0)
  %17 = load ptr, ptr %9, align 8
  %18 = load i32, ptr %17, align 4
  %19 = add i32 %18, 3
  store i32 %19, ptr %17, align 4
  %20 = load ptr, ptr %6, align 8
  %21 = load i32, ptr @hf_opcua_transport_chunk, align 4
  %22 = load ptr, ptr %7, align 8
  %23 = load ptr, ptr %9, align 8
  %24 = load i32, ptr %23, align 4
  %25 = call ptr @proto_tree_add_item(ptr noundef %20, i32 noundef %21, ptr noundef %22, i32 noundef %24, i32 noundef 1, i32 noundef 0)
  %26 = load ptr, ptr %9, align 8
  %27 = load i32, ptr %26, align 4
  %28 = add i32 %27, 1
  store i32 %28, ptr %26, align 4
  %29 = load ptr, ptr %6, align 8
  %30 = load i32, ptr @hf_opcua_transport_size, align 4
  %31 = load ptr, ptr %7, align 8
  %32 = load ptr, ptr %9, align 8
  %33 = load i32, ptr %32, align 4
  %34 = call ptr @proto_tree_add_item(ptr noundef %29, i32 noundef %30, ptr noundef %31, i32 noundef %33, i32 noundef 4, i32 noundef -2147483648)
  %35 = load ptr, ptr %9, align 8
  %36 = load i32, ptr %35, align 4
  %37 = add i32 %36, 4
  store i32 %37, ptr %35, align 4
  ret void
}

; Function Attrs: null_pointer_is_valid sspstrong uwtable
define hidden i32 @parseError(ptr noundef %0, ptr noundef %1, ptr noundef %2, ptr noundef %3, ptr noundef %4) #0 {
  %6 = alloca ptr, align 8
  %7 = alloca ptr, align 8
  %8 = alloca ptr, align 8
  %9 = alloca ptr, align 8
  %10 = alloca ptr, align 8
  store ptr %0, ptr %6, align 8
  store ptr %1, ptr %7, align 8
  store ptr %2, ptr %8, align 8
  store ptr %3, ptr %9, align 8
  store ptr %4, ptr %10, align 8
  %11 = load ptr, ptr %6, align 8
  %12 = load ptr, ptr %7, align 8
  %13 = load ptr, ptr %8, align 8
  %14 = load ptr, ptr %9, align 8
  %15 = load ptr, ptr %10, align 8
  call void @parseMessageHeader(ptr noundef %11, ptr noundef %12, ptr noundef %13, ptr noundef %14, ptr noundef %15)
  %16 = load ptr, ptr %6, align 8
  %17 = load ptr, ptr %7, align 8
  %18 = load ptr, ptr %8, align 8
  %19 = load ptr, ptr %9, align 8
  %20 = load i32, ptr @hf_opcua_transport_error, align 4
  %21 = call ptr @parseStatusCode(ptr noundef %16, ptr noundef %17, ptr noundef %18, ptr noundef %19, i32 noundef %20)
  %22 = load ptr, ptr %6, align 8
  %23 = load ptr, ptr %7, align 8
  %24 = load ptr, ptr %8, align 8
  %25 = load ptr, ptr %9, align 8
  %26 = load i32, ptr @hf_opcua_transport_reason, align 4
  %27 = call ptr @parseString(ptr noundef %22, ptr noundef %23, ptr noundef %24, ptr noundef %25, i32 noundef %26)
  ret i32 -1
}